target datalayout = "e-m:e-p270:32:32-p271:32:32-p272:64:64-i64:64-i128:128-f80:128-n8:16:32:64-S128"
target triple = "x86_64-pc-linux-gnu"

%struct.mbr_boot_record = type <{ [4 x %struct.mbr_partition_entry], i16 }>
%struct.mbr_partition_entry = type { i8, [3 x i8], i8, [3 x i8], i32, i32 }

@.str.24 = private unnamed_addr constant [41 x i8] c"cli_scanmbr: Invalid boot record status\0A\00", align 1
@.str.25 = private unnamed_addr constant [44 x i8] c"cli_scanmbr: Invalid boot record signature\0A\00", align 1
@.str.26 = private unnamed_addr constant [38 x i8] c"cli_scanmbr: Invalid partition entry\0A\00", align 1
@.str.27 = private unnamed_addr constant [69 x i8] c"cli_scanmbr: bootstrap code or file is too small to hold disk image\0A\00", align 1

; Function Attrs: nounwind uwtable
define internal i32 @mbr_check_mbr(ptr noundef %0, i64 noundef %1, i64 noundef %2) #0 {
  %4 = alloca ptr, align 8
  %5 = alloca i64, align 8
  %6 = alloca i64, align 8
  %7 = alloca i32, align 4
  %8 = alloca i32, align 4
  %9 = alloca i64, align 8
  %10 = alloca i64, align 8
  store ptr %0, ptr %4, align 8, !tbaa !13
  store i64 %1, ptr %5, align 8, !tbaa !8
  store i64 %2, ptr %6, align 8, !tbaa !8
  call void @llvm.lifetime.start.p0(i64 4, ptr %7) #5
  store i32 0, ptr %7, align 4, !tbaa !15
  call void @llvm.lifetime.start.p0(i64 4, ptr %8) #5
  store i32 0, ptr %8, align 4, !tbaa !15
  call void @llvm.lifetime.start.p0(i64 8, ptr %9) #5
  store i64 0, ptr %9, align 8, !tbaa !8
  call void @llvm.lifetime.start.p0(i64 8, ptr %10) #5
  store i64 0, ptr %10, align 8, !tbaa !8
  store i32 0, ptr %8, align 4, !tbaa !15
  br label %11

11:                                               ; preds = %63, %3
  %12 = load i32, ptr %8, align 4, !tbaa !15
  %13 = icmp ult i32 %12, 4
  br i1 %13, label %14, label %66

14:                                               ; preds = %11
  %15 = load ptr, ptr %4, align 8, !tbaa !13
  %16 = getelementptr inbounds nuw %struct.mbr_boot_record, ptr %15, i32 0, i32 0
  %17 = load i32, ptr %8, align 4, !tbaa !15
  %18 = zext i32 %17 to i64
  %19 = getelementptr inbounds nuw [4 x %struct.mbr_partition_entry], ptr %16, i64 0, i64 %18
  %20 = getelementptr inbounds nuw %struct.mbr_partition_entry, ptr %19, i32 0, i32 0
  %21 = load i8, ptr %20, align 1, !tbaa !23
  %22 = zext i8 %21 to i32
  %23 = icmp ne i32 %22, 0
  br i1 %23, label %24, label %35

24:                                               ; preds = %14
  %25 = load ptr, ptr %4, align 8, !tbaa !13
  %26 = getelementptr inbounds nuw %struct.mbr_boot_record, ptr %25, i32 0, i32 0
  %27 = load i32, ptr %8, align 4, !tbaa !15
  %28 = zext i32 %27 to i64
  %29 = getelementptr inbounds nuw [4 x %struct.mbr_partition_entry], ptr %26, i64 0, i64 %28
  %30 = getelementptr inbounds nuw %struct.mbr_partition_entry, ptr %29, i32 0, i32 0
  %31 = load i8, ptr %30, align 1, !tbaa !23
  %32 = zext i8 %31 to i32
  %33 = icmp ne i32 %32, 128
  br i1 %33, label %34, label %35

34:                                               ; preds = %24
  call void (ptr, ...) @cli_dbgmsg(ptr noundef @.str.24)
  store i32 26, ptr %7, align 4, !tbaa !15
  br label %80

35:                                               ; preds = %24, %14
  %36 = load ptr, ptr %4, align 8, !tbaa !13
  %37 = getelementptr inbounds nuw %struct.mbr_boot_record, ptr %36, i32 0, i32 0
  %38 = load i32, ptr %8, align 4, !tbaa !15
  %39 = zext i32 %38 to i64
  %40 = getelementptr inbounds nuw [4 x %struct.mbr_partition_entry], ptr %37, i64 0, i64 %39
  %41 = getelementptr inbounds nuw %struct.mbr_partition_entry, ptr %40, i32 0, i32 4
  %42 = load i32, ptr %41, align 1, !tbaa !18
  %43 = zext i32 %42 to i64
  %44 = load i64, ptr %6, align 8, !tbaa !8
  %45 = mul i64 %43, %44
  store i64 %45, ptr %9, align 8, !tbaa !8
  %46 = load ptr, ptr %4, align 8, !tbaa !13
  %47 = getelementptr inbounds nuw %struct.mbr_boot_record, ptr %46, i32 0, i32 0
  %48 = load i32, ptr %8, align 4, !tbaa !15
  %49 = zext i32 %48 to i64
  %50 = getelementptr inbounds nuw [4 x %struct.mbr_partition_entry], ptr %47, i64 0, i64 %49
  %51 = getelementptr inbounds nuw %struct.mbr_partition_entry, ptr %50, i32 0, i32 5
  %52 = load i32, ptr %51, align 1, !tbaa !19
  %53 = zext i32 %52 to i64
  %54 = load i64, ptr %6, align 8, !tbaa !8
  %55 = mul i64 %53, %54
  store i64 %55, ptr %10, align 8, !tbaa !8
  %56 = load i64, ptr %9, align 8, !tbaa !8
  %57 = load i64, ptr %10, align 8, !tbaa !8
  %58 = add i64 %56, %57
  %59 = load i64, ptr %5, align 8, !tbaa !8
  %60 = icmp ugt i64 %58, %59
  br i1 %60, label %61, label %62

61:                                               ; preds = %35
  call void (ptr, ...) @cli_dbgmsg(ptr noundef @.str.26)
  store i32 26, ptr %7, align 4, !tbaa !15
  br label %80

62:                                               ; preds = %35
  br label %63

63:                                               ; preds = %62
  %64 = load i32, ptr %8, align 4, !tbaa !15
  %65 = add i32 %64, 1
  store i32 %65, ptr %8, align 4, !tbaa !15
  br label %11

66:                                               ; preds = %11
  %67 = load ptr, ptr %4, align 8, !tbaa !13
  %68 = getelementptr inbounds nuw %struct.mbr_boot_record, ptr %67, i32 0, i32 1
  %69 = load i16, ptr %68, align 1, !tbaa !20
  %70 = zext i16 %69 to i32
  %71 = icmp ne i32 %70, 21930
  br i1 %71, label %72, label %73

72:                                               ; preds = %66
  call void (ptr, ...) @cli_dbgmsg(ptr noundef @.str.25)
  store i32 26, ptr %7, align 4, !tbaa !15
  br label %80

73:                                               ; preds = %66
  %74 = load i64, ptr %5, align 8, !tbaa !8
  %75 = load i64, ptr %6, align 8, !tbaa !8
  %76 = udiv i64 %74, %75
  %77 = icmp ult i64 %76, 2
  br i1 %77, label %78, label %79

78:                                               ; preds = %73
  call void (ptr, ...) @cli_dbgmsg(ptr noundef @.str.27)
  store i32 26, ptr %7, align 4, !tbaa !15
  br label %80

79:                                               ; preds = %73
  br label %80

80:                                               ; preds = %79, %78, %72, %61, %34
  %81 = load i32, ptr %7, align 4, !tbaa !15
  call void @llvm.lifetime.end.p0(i64 8, ptr %10) #5
  call void @llvm.lifetime.end.p0(i64 8, ptr %9) #5
  call void @llvm.lifetime.end.p0(i64 4, ptr %8) #5
  call void @llvm.lifetime.end.p0(i64 4, ptr %7) #5
  ret i32 %81
}

; Function Attrs: nounwind uwtable
define void @mbr_convert_to_host(ptr noundef %0) #0 {
  %2 = alloca ptr, align 8
  %3 = alloca ptr, align 8
  %4 = alloca i32, align 4
  store ptr %0, ptr %2, align 8, !tbaa !13
  call void @llvm.lifetime.start.p0(i64 8, ptr %3) #5
  call void @llvm.lifetime.start.p0(i64 4, ptr %4) #5
  store i32 0, ptr %4, align 4, !tbaa !15
  br label %5

5:                                                ; preds = %24, %1
  %6 = load i32, ptr %4, align 4, !tbaa !15
  %7 = icmp ult i32 %6, 4
  br i1 %7, label %8, label %27

8:                                                ; preds = %5
  %9 = load ptr, ptr %2, align 8, !tbaa !13
  %10 = getelementptr inbounds nuw %struct.mbr_boot_record, ptr %9, i32 0, i32 0
  %11 = load i32, ptr %4, align 4, !tbaa !15
  %12 = zext i32 %11 to i64
  %13 = getelementptr inbounds nuw [4 x %struct.mbr_partition_entry], ptr %10, i64 0, i64 %12
  store ptr %13, ptr %3, align 8, !tbaa !16
  %14 = load ptr, ptr %3, align 8, !tbaa !16
  %15 = getelementptr inbounds nuw %struct.mbr_partition_entry, ptr %14, i32 0, i32 4
  %16 = load i32, ptr %15, align 1, !tbaa !18
  %17 = load ptr, ptr %3, align 8, !tbaa !16
  %18 = getelementptr inbounds nuw %struct.mbr_partition_entry, ptr %17, i32 0, i32 4
  store i32 %16, ptr %18, align 1, !tbaa !18
  %19 = load ptr, ptr %3, align 8, !tbaa !16
  %20 = getelementptr inbounds nuw %struct.mbr_partition_entry, ptr %19, i32 0, i32 5
  %21 = load i32, ptr %20, align 1, !tbaa !19
  %22 = load ptr, ptr %3, align 8, !tbaa !16
  %23 = getelementptr inbounds nuw %struct.mbr_partition_entry, ptr %22, i32 0, i32 5
  store i32 %21, ptr %23, align 1, !tbaa !19
  br label %24

24:                                               ; preds = %8
  %25 = load i32, ptr %4, align 4, !tbaa !15
  %26 = add i32 %25, 1
  store i32 %26, ptr %4, align 4, !tbaa !15
  br label %5

27:                                               ; preds = %5
  %28 = load ptr, ptr %2, align 8, !tbaa !13
  %29 = getelementptr inbounds nuw %struct.mbr_boot_record, ptr %28, i32 0, i32 1
  %30 = load i16, ptr %29, align 1, !tbaa !20
  %31 = zext i16 %30 to i32
  %32 = and i32 %31, 255
  %33 = shl i32 %32, 8
  %34 = load ptr, ptr %2, align 8, !tbaa !13
  %35 = getelementptr inbounds nuw %struct.mbr_boot_record, ptr %34, i32 0, i32 1
  %36 = load i16, ptr %35, align 1, !tbaa !20
  %37 = zext i16 %36 to i32
  %38 = ashr i32 %37, 8
  %39 = and i32 %38, 255
  %40 = or i32 %33, %39
  %41 = trunc i32 %40 to i16
  %42 = load ptr, ptr %2, align 8, !tbaa !13
  %43 = getelementptr inbounds nuw %struct.mbr_boot_record, ptr %42, i32 0, i32 1
  store i16 %41, ptr %43, align 1, !tbaa !20
  call void @llvm.lifetime.end.p0(i64 4, ptr %4) #5
  call void @llvm.lifetime.end.p0(i64 8, ptr %3) #5
  ret void
}

; Function Attrs: nounwind uwtable
define i32 @cli_mbr_check(ptr noundef %0, i64 noundef %1, i64 noundef %2) #0 {
  %4 = alloca i32, align 4
  %5 = alloca ptr, align 8
  %6 = alloca i64, align 8
  %7 = alloca i64, align 8
  %8 = alloca %struct.mbr_boot_record, align 1
  %9 = alloca i64, align 8
  %10 = alloca i64, align 8
  %11 = alloca i32, align 4
  store ptr %0, ptr %5, align 8, !tbaa !3
  store i64 %1, ptr %6, align 8, !tbaa !8
  store i64 %2, ptr %7, align 8, !tbaa !8
  call void @llvm.lifetime.start.p0(i64 66, ptr %8) #5
  call void @llvm.lifetime.start.p0(i64 8, ptr %9) #5
  store i64 0, ptr %9, align 8, !tbaa !8
  call void @llvm.lifetime.start.p0(i64 8, ptr %10) #5
  store i64 512, ptr %10, align 8, !tbaa !8
  %12 = load i64, ptr %6, align 8, !tbaa !8
  %13 = load i64, ptr %10, align 8, !tbaa !8
  %14 = icmp ult i64 %12, %13
  br i1 %14, label %15, label %16

15:                                               ; preds = %3
  store i32 26, ptr %4, align 4
  store i32 1, ptr %11, align 4
  br label %40

16:                                               ; preds = %3
  %17 = load i64, ptr %10, align 8, !tbaa !8
  %18 = sub i64 %17, 66
  store i64 %18, ptr %9, align 8, !tbaa !8
  %19 = load ptr, ptr %5, align 8, !tbaa !3
  %20 = load i64, ptr %9, align 8, !tbaa !8
  %21 = getelementptr inbounds nuw i8, ptr %19, i64 %20
  call void @llvm.memcpy.p0.p0.i64(ptr align 1 %8, ptr align 1 %21, i64 66, i1 false)
  call void @mbr_convert_to_host(ptr noundef %8)
  %22 = getelementptr inbounds nuw %struct.mbr_boot_record, ptr %8, i32 0, i32 0
  %23 = getelementptr inbounds [4 x %struct.mbr_partition_entry], ptr %22, i64 0, i64 0
  %24 = getelementptr inbounds nuw %struct.mbr_partition_entry, ptr %23, i32 0, i32 2
  %25 = load i8, ptr %24, align 1, !tbaa !10
  %26 = zext i8 %25 to i32
  %27 = icmp eq i32 %26, 238
  br i1 %27, label %35, label %28

28:                                               ; preds = %16
  %29 = getelementptr inbounds nuw %struct.mbr_boot_record, ptr %8, i32 0, i32 0
  %30 = getelementptr inbounds [4 x %struct.mbr_partition_entry], ptr %29, i64 0, i64 0
  %31 = getelementptr inbounds nuw %struct.mbr_partition_entry, ptr %30, i32 0, i32 2
  %32 = load i8, ptr %31, align 1, !tbaa !10
  %33 = zext i8 %32 to i32
  %34 = icmp eq i32 %33, 237
  br i1 %34, label %35, label %36

35:                                               ; preds = %28, %16
  store i32 574, ptr %4, align 4
  store i32 1, ptr %11, align 4
  br label %40

36:                                               ; preds = %28
  %37 = load i64, ptr %7, align 8, !tbaa !8
  %38 = load i64, ptr %10, align 8, !tbaa !8
  %39 = call i32 @mbr_check_mbr(ptr noundef %8, i64 noundef %37, i64 noundef %38)
  store i32 %39, ptr %4, align 4
  store i32 1, ptr %11, align 4
  br label %40

40:                                               ; preds = %36, %35, %15
  call void @llvm.lifetime.end.p0(i64 8, ptr %10) #5
  call void @llvm.lifetime.end.p0(i64 8, ptr %9) #5
  call void @llvm.lifetime.end.p0(i64 66, ptr %8) #5
  %41 = load i32, ptr %4, align 4
  ret i32 %41
}