; Function Attrs: nounwind uwtable
define range(i32 0, 575) i32 @cli_mbr_check(ptr noundef readonly captures(none) %0, i64 noundef %1, i64 noundef %2) local_unnamed_addr #0 {
  %4 = alloca %struct.mbr_boot_record, align 1
  call void @llvm.lifetime.start.p0(i64 66, ptr nonnull %4) #6
  %5 = icmp ult i64 %1, 512
  br i1 %5, label %mbr_check_mbr.exit, label %6

6:                                                ; preds = %3
  %7 = getelementptr inbounds nuw i8, ptr %0, i64 446
  call void @llvm.memcpy.p0.p0.i64(ptr noundef nonnull align 1 dereferenceable(66) %4, ptr noundef nonnull align 1 dereferenceable(66) %7, i64 66, i1 false)
  %8 = getelementptr inbounds nuw i8, ptr %4, i64 64
  %9 = load i16, ptr %8, align 1, !tbaa !3
  %10 = getelementptr inbounds nuw i8, ptr %4, i64 4
  %11 = load i8, ptr %10, align 1, !tbaa !8
  %12 = add i8 %11, 19
  %or.cond = icmp ult i8 %12, 2
  br i1 %or.cond, label %mbr_check_mbr.exit, label %.preheader

13:                                               ; preds = %16
  %indvars.iv.next.i = add nuw nsw i64 %indvars.iv.i, 1
  %exitcond.not.i = icmp eq i64 %indvars.iv.next.i, 4
  br i1 %exitcond.not.i, label %26, label %.preheader

.preheader:                                       ; preds = %6, %13
  %indvars.iv.i = phi i64 [ %indvars.iv.next.i, %13 ], [ 0, %6 ]
  %14 = getelementptr inbounds nuw [4 x %struct.mbr_partition_entry], ptr %4, i64 0, i64 %indvars.iv.i
  %15 = load i8, ptr %14, align 1, !tbaa !11
  switch i8 %15, label %.sink.split.i [
    i8 0, label %16
    i8 -128, label %16
  ]

16:                                               ; preds = %.preheader, %.preheader
  %17 = getelementptr inbounds nuw i8, ptr %14, i64 8
  %18 = load i32, ptr %17, align 1, !tbaa !12
  %19 = zext i32 %18 to i64
  %20 = getelementptr inbounds nuw i8, ptr %14, i64 12
  %21 = load i32, ptr %20, align 1, !tbaa !13
  %22 = zext i32 %21 to i64
  %23 = add nuw nsw i64 %22, %19
  %24 = shl nuw nsw i64 %23, 9
  %25 = icmp ugt i64 %24, %2
  br i1 %25, label %.sink.split.i, label %13

26:                                               ; preds = %13
  %.not.i = icmp eq i16 %9, -21931
  br i1 %.not.i, label %27, label %.sink.split.i

27:                                               ; preds = %26
  %28 = icmp ult i64 %2, 1024
  br i1 %28, label %.sink.split.i, label %mbr_check_mbr.exit

.sink.split.i:                                    ; preds = %16, %.preheader, %27, %26
  %.str.27.sink.i = phi ptr [ @.str.25, %26 ], [ @.str.27, %27 ], [ @.str.26, %16 ], [ @.str.24, %.preheader ]
  tail call void (ptr, ...) @cli_dbgmsg(ptr noundef nonnull %.str.27.sink.i) #6
  br label %mbr_check_mbr.exit

mbr_check_mbr.exit:                               ; preds = %.sink.split.i, %27, %6, %3
  %.0 = phi i32 [ 26, %3 ], [ 574, %6 ], [ 0, %27 ], [ 26, %.sink.split.i ]
  call void @llvm.lifetime.end.p0(i64 66, ptr nonnull %4) #6
  ret i32 %.0
}